; Function Attrs: nounwind sspstrong uwtable
define internal fastcc noundef ptr @new_xstring(ptr noundef captures(none) %0, ptr noundef %1, ptr noundef nonnull readonly captures(none) %2) unnamed_addr #0 {
  %.not = icmp eq ptr %1, null
  br i1 %.not, label %4, label %26

4:                                                ; preds = %3
  %5 = getelementptr inbounds nuw i8, ptr %0, i64 216
  %6 = load ptr, ptr %5, align 8, !tbaa !49
  %7 = tail call noalias nonnull dereferenceable(32) ptr @ruby_xcalloc(i64 noundef 1, i64 noundef 32) #35
  %8 = tail call noalias nonnull dereferenceable(1) ptr @ruby_xcalloc(i64 noundef 1, i64 noundef 1) #35
  %9 = getelementptr inbounds nuw i8, ptr %7, i64 24
  store ptr %8, ptr %9, align 8, !tbaa !443
  %10 = getelementptr inbounds nuw i8, ptr %7, i64 16
  store i64 0, ptr %10, align 8, !tbaa !445
  store i8 0, ptr %8, align 1, !tbaa !6
  store i32 0, ptr %7, align 8, !tbaa !446
  %11 = getelementptr inbounds nuw i8, ptr %7, i64 8
  store ptr %6, ptr %11, align 8, !tbaa !447
  %12 = getelementptr i8, ptr %0, i64 288
  %.val.i.i = load ptr, ptr %12, align 8, !tbaa !120
  %13 = tail call ptr @rb_ast_newnode(ptr noundef %.val.i.i, i32 noundef range(i32 0, 115) 65, i64 noundef range(i64 32, 129) 40, i64 noundef 8) #31
  tail call void @rb_node_init(ptr noundef %13, i32 noundef range(i32 0, 115) 65) #31
  %14 = getelementptr inbounds nuw i8, ptr %13, i64 8
  tail call void @llvm.memcpy.p0.p0.i64(ptr noundef nonnull align 8 dereferenceable(16) %14, ptr noundef nonnull readonly align 4 dereferenceable(16) %2, i64 16, i1 false), !tbaa.struct !11
  %15 = load i32, ptr %2, align 4, !tbaa !51
  %16 = sext i32 %15 to i64
  %17 = load i64, ptr %13, align 8, !tbaa !61
  %18 = and i64 %17, 32767
  %19 = shl nsw i64 %16, 15
  %20 = or disjoint i64 %18, %19
  store i64 %20, ptr %13, align 8, !tbaa !61
  %21 = getelementptr inbounds nuw i8, ptr %0, i64 296
  %22 = load i32, ptr %21, align 8, !tbaa !192
  %23 = add nsw i32 %22, 1
  store i32 %23, ptr %21, align 8, !tbaa !192
  %24 = getelementptr inbounds nuw i8, ptr %13, i64 24
  store i32 %22, ptr %24, align 8, !tbaa !193
  %25 = getelementptr inbounds nuw i8, ptr %13, i64 32
  store ptr %7, ptr %25, align 8, !tbaa !424
  br label %80

26:                                               ; preds = %3
  %27 = load i64, ptr %1, align 8, !tbaa !61
  %28 = trunc i64 %27 to i32
  %29 = lshr i32 %28, 8
  %30 = and i32 %29, 127
  switch i32 %30, label %49 [
    i32 63, label %31
    i32 64, label %40
  ]

31:                                               ; preds = %26
  %32 = tail call i64 @rb_node_set_type(ptr noundef nonnull %1, i32 noundef 65) #31
  %33 = getelementptr inbounds nuw i8, ptr %1, i64 8
  tail call void @llvm.memcpy.p0.p0.i64(ptr noundef nonnull align 8 dereferenceable(16) %33, ptr noundef nonnull readonly align 4 dereferenceable(16) %2, i64 16, i1 false), !tbaa.struct !11
  %34 = load i32, ptr %2, align 4, !tbaa !51
  %35 = sext i32 %34 to i64
  %36 = load i64, ptr %1, align 8, !tbaa !61
  %37 = and i64 %36, 32767
  %38 = shl nsw i64 %35, 15
  %39 = or disjoint i64 %37, %38
  store i64 %39, ptr %1, align 8, !tbaa !61
  br label %80

40:                                               ; preds = %26
  %41 = tail call i64 @rb_node_set_type(ptr noundef nonnull %1, i32 noundef 66) #31
  %42 = getelementptr inbounds nuw i8, ptr %1, i64 8
  tail call void @llvm.memcpy.p0.p0.i64(ptr noundef nonnull align 8 dereferenceable(16) %42, ptr noundef nonnull readonly align 4 dereferenceable(16) %2, i64 16, i1 false), !tbaa.struct !11
  %43 = load i32, ptr %2, align 4, !tbaa !51
  %44 = sext i32 %43 to i64
  %45 = load i64, ptr %1, align 8, !tbaa !61
  %46 = and i64 %45, 32767
  %47 = shl nsw i64 %44, 15
  %48 = or disjoint i64 %46, %47
  store i64 %48, ptr %1, align 8, !tbaa !61
  br label %80

49:                                               ; preds = %26
  %50 = getelementptr i8, ptr %0, i64 288
  %.val.i.i22 = load ptr, ptr %50, align 8, !tbaa !120
  %51 = tail call ptr @rb_ast_newnode(ptr noundef %.val.i.i22, i32 noundef range(i32 0, 115) 43, i64 noundef range(i64 32, 129) 56, i64 noundef 8) #31
  tail call void @rb_node_init(ptr noundef %51, i32 noundef range(i32 0, 115) 43) #31
  %52 = getelementptr inbounds nuw i8, ptr %51, i64 8
  tail call void @llvm.memcpy.p0.p0.i64(ptr noundef nonnull align 8 dereferenceable(16) %52, ptr noundef nonnull readonly align 4 dereferenceable(16) %2, i64 16, i1 false), !tbaa.struct !11
  %53 = load i32, ptr %2, align 4, !tbaa !51
  %54 = sext i32 %53 to i64
  %55 = load i64, ptr %51, align 8, !tbaa !61
  %56 = and i64 %55, 32767
  %57 = shl nsw i64 %54, 15
  %58 = or disjoint i64 %56, %57
  store i64 %58, ptr %51, align 8, !tbaa !61
  %59 = getelementptr inbounds nuw i8, ptr %0, i64 296
  %60 = load i32, ptr %59, align 8, !tbaa !192
  %61 = add nsw i32 %60, 1
  store i32 %61, ptr %59, align 8, !tbaa !192
  %62 = getelementptr inbounds nuw i8, ptr %51, i64 24
  store i32 %60, ptr %62, align 8, !tbaa !193
  %63 = getelementptr inbounds nuw i8, ptr %51, i64 32
  store ptr %1, ptr %63, align 8, !tbaa !170
  %64 = getelementptr inbounds nuw i8, ptr %51, i64 40
  store i64 1, ptr %64, align 8, !tbaa !6
  %65 = getelementptr inbounds nuw i8, ptr %51, i64 48
  store ptr null, ptr %65, align 8, !tbaa !172
  %.val.i.i23 = load ptr, ptr %50, align 8, !tbaa !120
  %66 = tail call ptr @rb_ast_newnode(ptr noundef %.val.i.i23, i32 noundef range(i32 0, 115) 66, i64 noundef range(i64 32, 129) 56, i64 noundef 8) #31
  tail call void @rb_node_init(ptr noundef %66, i32 noundef range(i32 0, 115) 66) #31
  %67 = getelementptr inbounds nuw i8, ptr %66, i64 8
  tail call void @llvm.memcpy.p0.p0.i64(ptr noundef nonnull align 8 dereferenceable(16) %67, ptr noundef nonnull readonly align 4 dereferenceable(16) %2, i64 16, i1 false), !tbaa.struct !11
  %68 = load i32, ptr %2, align 4, !tbaa !51
  %69 = sext i32 %68 to i64
  %70 = load i64, ptr %66, align 8, !tbaa !61
  %71 = and i64 %70, 32767
  %72 = shl nsw i64 %69, 15
  %73 = or disjoint i64 %71, %72
  store i64 %73, ptr %66, align 8, !tbaa !61
  %74 = load i32, ptr %59, align 8, !tbaa !192
  %75 = add nsw i32 %74, 1
  store i32 %75, ptr %59, align 8, !tbaa !192
  %76 = getelementptr inbounds nuw i8, ptr %66, i64 24
  store i32 %74, ptr %76, align 8, !tbaa !193
  %77 = getelementptr inbounds nuw i8, ptr %66, i64 32
  store ptr null, ptr %77, align 8, !tbaa !426
  %78 = getelementptr inbounds nuw i8, ptr %66, i64 40
  store i64 1, ptr %78, align 8, !tbaa !6
  %79 = getelementptr inbounds nuw i8, ptr %66, i64 48
  store ptr %51, ptr %79, align 8, !tbaa !429
  br label %80

80:                                               ; preds = %31, %40, %49, %4
  %.0 = phi ptr [ %13, %4 ], [ %66, %49 ], [ %1, %40 ], [ %1, %31 ]
  ret ptr %.0
}